	.file	"task.c"
	.intel_syntax noprefix
	.text
.Ltext0:
	.cfi_sections	.debug_frame
	.globl	curTask
	.section	.bss
	.align 4
	.type	curTask, @object
	.size	curTask, 4
curTask:
	.zero	4
	.text
	.globl	acquire_mutex
	.type	acquire_mutex, @function
acquire_mutex:
.LFB0:
	.file 1 "task.c"
	.loc 1 8 40
	.cfi_startproc
	push	ebp
	.cfi_def_cfa_offset 8
	.cfi_offset 5, -8
	mov	ebp, esp
	.cfi_def_cfa_register 5
	sub	esp, 8
	.loc 1 9 10
	jmp	.L2
.L3:
	.loc 1 10 9
	call	yield
.L2:
	.loc 1 9 11
	mov	eax, DWORD PTR [ebp+8]
	mov	eax, DWORD PTR [eax]
	.loc 1 9 10
	test	eax, eax
	jne	.L3
	.loc 1 12 8
	mov	eax, DWORD PTR curTask
	mov	edx, eax
	mov	eax, DWORD PTR [ebp+8]
	mov	DWORD PTR [eax], edx
	.loc 1 13 1
	nop
	leave
	.cfi_restore 5
	.cfi_def_cfa 4, 4
	ret
	.cfi_endproc
.LFE0:
	.size	acquire_mutex, .-acquire_mutex
	.globl	release_mutex
	.type	release_mutex, @function
release_mutex:
.LFB1:
	.loc 1 15 31
	.cfi_startproc
	push	ebp
	.cfi_def_cfa_offset 8
	.cfi_offset 5, -8
	mov	ebp, esp
	.cfi_def_cfa_register 5
	.loc 1 16 8
	mov	eax, DWORD PTR [ebp+8]
	mov	eax, DWORD PTR [eax]
	mov	edx, eax
	.loc 1 16 11
	mov	eax, DWORD PTR curTask
	.loc 1 16 7
	cmp	edx, eax
	jne	.L6
	.loc 1 17 12
	mov	eax, DWORD PTR [ebp+8]
	mov	DWORD PTR [eax], 0
.L6:
	.loc 1 19 1
	nop
	pop	ebp
	.cfi_restore 5
	.cfi_def_cfa 4, 4
	ret
	.cfi_endproc
.LFE1:
	.size	release_mutex, .-release_mutex
	.globl	atomic_set
	.type	atomic_set, @function
atomic_set:
.LFB2:
	.loc 1 21 42
	.cfi_startproc
	push	ebp
	.cfi_def_cfa_offset 8
	.cfi_offset 5, -8
	mov	ebp, esp
	.cfi_def_cfa_register 5
	sub	esp, 8
	.loc 1 22 5
	mov	eax, DWORD PTR [ebp+8]
	add	eax, 8
	sub	esp, 12
	push	eax
	call	acquire_mutex
	add	esp, 16
	.loc 1 24 5
/APP
/  24 "task.c" 1
	.intel_syntax noprefix
/  0 "" 2
	.loc 1 25 9
/  25 "task.c" 1
	mov eax, DWORD PTR [ebp+8]
	
/  0 "" 2
	.loc 1 26 9
/  26 "task.c" 1
	mov esi, DWORD PTR [ebp+12]
	
/  0 "" 2
	.loc 1 27 9
/  27 "task.c" 1
	mov edi, DWORD PTR [eax]
	
/  0 "" 2
	.loc 1 28 9
/  28 "task.c" 1
	mov ecx, DWORD PTR [eax+4]
	
/  0 "" 2
	.loc 1 29 9
/  29 "task.c" 1
	rep movsb
/  0 "" 2
	.loc 1 30 5
/  30 "task.c" 1
	.att_syntax prefix
/  0 "" 2
	.loc 1 32 5
/NO_APP
	mov	eax, DWORD PTR [ebp+8]
	add	eax, 8
	sub	esp, 12
	push	eax
	call	release_mutex
	add	esp, 16
	.loc 1 33 1
	nop
	leave
	.cfi_restore 5
	.cfi_def_cfa 4, 4
	ret
	.cfi_endproc
.LFE2:
	.size	atomic_set, .-atomic_set
	.globl	atomic_read
	.type	atomic_read, @function
atomic_read:
.LFB3:
	.loc 1 35 43
	.cfi_startproc
	push	ebp
	.cfi_def_cfa_offset 8
	.cfi_offset 5, -8
	mov	ebp, esp
	.cfi_def_cfa_register 5
	sub	esp, 8
	.loc 1 36 5
	mov	eax, DWORD PTR [ebp+8]
	add	eax, 8
	sub	esp, 12
	push	eax
	call	acquire_mutex
	add	esp, 16
	.loc 1 38 5
/APP
/  38 "task.c" 1
	.intel_syntax noprefix
/  0 "" 2
	.loc 1 39 9
/  39 "task.c" 1
	mov eax, DWORD PTR [ebp+8]
	
/  0 "" 2
	.loc 1 40 9
/  40 "task.c" 1
	mov edi, DWORD PTR [ebp+12]
	
/  0 "" 2
	.loc 1 41 9
/  41 "task.c" 1
	mov esi, DWORD PTR [eax]
	
/  0 "" 2
	.loc 1 42 9
/  42 "task.c" 1
	mov ecx, DWORD PTR [eax+4]
	
/  0 "" 2
	.loc 1 43 9
/  43 "task.c" 1
	rep movsb
/  0 "" 2
	.loc 1 44 5
/  44 "task.c" 1
	.att_syntax prefix
/  0 "" 2
	.loc 1 46 5
/NO_APP
	mov	eax, DWORD PTR [ebp+8]
	add	eax, 8
	sub	esp, 12
	push	eax
	call	release_mutex
	add	esp, 16
	.loc 1 47 1
	nop
	leave
	.cfi_restore 5
	.cfi_def_cfa 4, 4
	ret
	.cfi_endproc
.LFE3:
	.size	atomic_read, .-atomic_read
	.section	.rodata
	.align 4
.LC0:
	.string	"%p ESP=%p EIP=%p EAX=%p EBX=%p ECX=%p\n"
	.align 4
.LC1:
	.string	" EDX=%p ESI=%p EDI=%p EFLAGS=%b\n"
	.text
	.globl	printTask
	.type	printTask, @function
printTask:
.LFB4:
	.loc 1 49 26
	.cfi_startproc
	push	ebp
	.cfi_def_cfa_offset 8
	.cfi_offset 5, -8
	mov	ebp, esp
	.cfi_def_cfa_register 5
	push	esi
	push	ebx
	.cfi_offset 6, -12
	.cfi_offset 3, -16
	.loc 1 50 169
	mov	eax, DWORD PTR [ebp+8]
	mov	eax, DWORD PTR [eax]
	.loc 1 50 174
	add	eax, 8
	.loc 1 50 5
	mov	ebx, DWORD PTR [eax]
	.loc 1 50 143
	mov	eax, DWORD PTR [ebp+8]
	mov	eax, DWORD PTR [eax]
	.loc 1 50 148
	add	eax, 4
	.loc 1 50 5
	mov	ecx, DWORD PTR [eax]
	.loc 1 50 119
	mov	eax, DWORD PTR [ebp+8]
	mov	eax, DWORD PTR [eax]
	.loc 1 50 5
	mov	edx, DWORD PTR [eax]
	.loc 1 50 92
	mov	eax, DWORD PTR [ebp+8]
	mov	eax, DWORD PTR [eax]
	.loc 1 50 97
	add	eax, 32
	.loc 1 50 5
	mov	eax, DWORD PTR [eax]
	.loc 1 50 64
	mov	esi, DWORD PTR [ebp+8]
	mov	esi, DWORD PTR [esi]
	.loc 1 50 5
	add	esi, 36
	sub	esp, 4
	push	ebx
	push	ecx
	push	edx
	push	eax
	push	esi
	push	DWORD PTR [ebp+8]
	push	OFFSET FLAT:.LC0
	call	kprintf
	add	esp, 32
	.loc 1 51 147
	mov	eax, DWORD PTR [ebp+8]
	mov	eax, DWORD PTR [eax]
	.loc 1 51 152
	add	eax, 28
	.loc 1 51 5
	mov	ebx, DWORD PTR [eax]
	.loc 1 51 120
	mov	eax, DWORD PTR [ebp+8]
	mov	eax, DWORD PTR [eax]
	.loc 1 51 125
	add	eax, 20
	.loc 1 51 5
	mov	ecx, DWORD PTR [eax]
	.loc 1 51 93
	mov	eax, DWORD PTR [ebp+8]
	mov	eax, DWORD PTR [eax]
	.loc 1 51 98
	add	eax, 16
	.loc 1 51 5
	mov	edx, DWORD PTR [eax]
	.loc 1 51 66
	mov	eax, DWORD PTR [ebp+8]
	mov	eax, DWORD PTR [eax]
	.loc 1 51 71
	add	eax, 12
	.loc 1 51 5
	mov	eax, DWORD PTR [eax]
	sub	esp, 12
	push	ebx
	push	ecx
	push	edx
	push	eax
	push	OFFSET FLAT:.LC1
	call	kprintf
	add	esp, 32
	.loc 1 52 1
	nop
	lea	esp, [ebp-8]
	pop	ebx
	.cfi_restore 3
	pop	esi
	.cfi_restore 6
	pop	ebp
	.cfi_restore 5
	.cfi_def_cfa 4, 4
	ret
	.cfi_endproc
.LFE4:
	.size	printTask, .-printTask
	.globl	printTasks
	.type	printTasks, @function
printTasks:
.LFB5:
	.loc 1 54 18
	.cfi_startproc
	push	ebp
	.cfi_def_cfa_offset 8
	.cfi_offset 5, -8
	mov	ebp, esp
	.cfi_def_cfa_register 5
	sub	esp, 24
	.loc 1 55 11
	mov	eax, DWORD PTR curTask
	mov	DWORD PTR [ebp-12], eax
.L11:
	.loc 1 58 9 discriminator 1
	sub	esp, 12
	push	DWORD PTR [ebp-12]
	call	printTask
	add	esp, 16
	.loc 1 59 13 discriminator 1
	mov	eax, DWORD PTR [ebp-12]
	mov	eax, DWORD PTR [eax+4]
	mov	DWORD PTR [ebp-12], eax
	.loc 1 60 16 discriminator 1
	mov	eax, DWORD PTR curTask
	.loc 1 60 5 discriminator 1
	cmp	DWORD PTR [ebp-12], eax
	jne	.L11
	.loc 1 61 1
	nop
	nop
	leave
	.cfi_restore 5
	.cfi_def_cfa 4, 4
	ret
	.cfi_endproc
.LFE5:
	.size	printTasks, .-printTasks
	.globl	thread_cleanup
	.type	thread_cleanup, @function
thread_cleanup:
.LFB6:
	.loc 1 63 22
	.cfi_startproc
	push	ebp
	.cfi_def_cfa_offset 8
	.cfi_offset 5, -8
	mov	ebp, esp
	.cfi_def_cfa_register 5
	sub	esp, 24
	.loc 1 64 11
	mov	eax, DWORD PTR curTask
	mov	DWORD PTR [ebp-12], eax
	.loc 1 66 34
	mov	edx, DWORD PTR curTask
	.loc 1 66 12
	mov	eax, DWORD PTR curTask
	mov	eax, DWORD PTR [eax+8]
	.loc 1 66 34
	mov	edx, DWORD PTR [edx+4]
	.loc 1 66 25
	mov	DWORD PTR [eax+4], edx
	.loc 1 67 34
	mov	edx, DWORD PTR curTask
	.loc 1 67 12
	mov	eax, DWORD PTR curTask
	mov	eax, DWORD PTR [eax+4]
	.loc 1 67 34
	mov	edx, DWORD PTR [edx+8]
	.loc 1 67 25
	mov	DWORD PTR [eax+8], edx
	.loc 1 69 18
	mov	eax, DWORD PTR curTask
	mov	eax, DWORD PTR [eax]
	.loc 1 69 5
	sub	esp, 12
	push	eax
	call	kfree
	add	esp, 16
	.loc 1 70 22
	mov	eax, DWORD PTR curTask
	mov	eax, DWORD PTR [eax+4]
	.loc 1 70 13
	mov	DWORD PTR curTask, eax
	.loc 1 71 5
	sub	esp, 12
	push	DWORD PTR [ebp-12]
	call	kfree
	add	esp, 16
	.loc 1 74 5
	call	resume
	.loc 1 75 1
	nop
	leave
	.cfi_restore 5
	.cfi_def_cfa 4, 4
	ret
	.cfi_endproc
.LFE6:
	.size	thread_cleanup, .-thread_cleanup
	.globl	createTask
	.type	createTask, @function
createTask:
.LFB7:
	.loc 1 77 53
	.cfi_startproc
	push	ebp
	.cfi_def_cfa_offset 8
	.cfi_offset 5, -8
	mov	ebp, esp
	.cfi_def_cfa_register 5
	sub	esp, 24
	.loc 1 78 22
	sub	esp, 12
	push	4096
	call	kmalloc
	add	esp, 16
	.loc 1 78 14
	mov	DWORD PTR [ebp-12], eax
	.loc 1 80 35
	mov	eax, DWORD PTR [ebp-12]
	lea	edx, [eax+4052]
	.loc 1 80 14
	mov	eax, DWORD PTR [ebp+8]
	mov	DWORD PTR [eax], edx
	.loc 1 82 44
	mov	eax, DWORD PTR [ebp-12]
	add	eax, 4092
	.loc 1 82 6
	mov	edx, eax
	.loc 1 82 76
	mov	eax, DWORD PTR [ebp+16]
	.loc 1 82 74
	mov	DWORD PTR [edx], eax
	.loc 1 83 44
	mov	eax, DWORD PTR [ebp-12]
	add	eax, 4084
	.loc 1 83 6
	mov	edx, eax
	.loc 1 83 76
	mov	eax, DWORD PTR [ebp+12]
	.loc 1 83 74
	mov	DWORD PTR [edx], eax
	.loc 1 84 44
	mov	eax, DWORD PTR [ebp-12]
	add	eax, 4088
	.loc 1 84 76
	mov	edx, OFFSET FLAT:thread_cleanup
	.loc 1 84 74
	mov	DWORD PTR [eax], edx
	.loc 1 85 1
	nop
	leave
	.cfi_restore 5
	.cfi_def_cfa 4, 4
	ret
	.cfi_endproc
.LFE7:
	.size	createTask, .-createTask
	.globl	init_tasking
	.type	init_tasking, @function
init_tasking:
.LFB8:
	.loc 1 87 20
	.cfi_startproc
	push	ebp
	.cfi_def_cfa_offset 8
	.cfi_offset 5, -8
	mov	ebp, esp
	.cfi_def_cfa_register 5
	sub	esp, 8
	.loc 1 88 15
	sub	esp, 12
	push	12
	call	kmalloc
	add	esp, 16
	.loc 1 88 13
	mov	DWORD PTR curTask, eax
	.loc 1 89 12
	mov	eax, DWORD PTR curTask
	.loc 1 89 19
	mov	edx, DWORD PTR curTask
	mov	DWORD PTR [eax+4], edx
	.loc 1 90 12
	mov	eax, DWORD PTR curTask
	.loc 1 90 19
	mov	edx, DWORD PTR curTask
	mov	DWORD PTR [eax+8], edx
	.loc 1 91 1
	nop
	leave
	.cfi_restore 5
	.cfi_def_cfa 4, 4
	ret
	.cfi_endproc
.LFE8:
	.size	init_tasking, .-init_tasking
	.globl	spawnThread
	.type	spawnThread, @function
spawnThread:
.LFB9:
	.loc 1 93 43
	.cfi_startproc
	push	ebp
	.cfi_def_cfa_offset 8
	.cfi_offset 5, -8
	mov	ebp, esp
	.cfi_def_cfa_register 5
	push	ebx
	sub	esp, 20
	.cfi_offset 3, -12
	.loc 1 94 25
	mov	eax, DWORD PTR curTask
	.loc 1 94 11
	mov	eax, DWORD PTR [eax+4]
	mov	DWORD PTR [ebp-12], eax
	.loc 1 95 12
	mov	ebx, DWORD PTR curTask
	.loc 1 95 21
	sub	esp, 12
	push	12
	call	kmalloc
	add	esp, 16
	.loc 1 95 19
	mov	DWORD PTR [ebx+4], eax
	.loc 1 96 12
	mov	eax, DWORD PTR curTask
	mov	eax, DWORD PTR [eax+4]
	.loc 1 96 25
	mov	edx, DWORD PTR curTask
	mov	DWORD PTR [eax+8], edx
	.loc 1 97 12
	mov	eax, DWORD PTR curTask
	mov	eax, DWORD PTR [eax+4]
	.loc 1 97 25
	mov	edx, DWORD PTR [ebp-12]
	mov	DWORD PTR [eax+4], edx
	.loc 1 98 23
	mov	eax, DWORD PTR curTask
	mov	eax, DWORD PTR [eax+4]
	.loc 1 98 5
	sub	esp, 4
	push	DWORD PTR [ebp+12]
	push	DWORD PTR [ebp+8]
	push	eax
	call	createTask
	add	esp, 16
	.loc 1 99 1
	nop
	mov	ebx, DWORD PTR [ebp-4]
	leave
	.cfi_restore 5
	.cfi_restore 3
	.cfi_def_cfa 4, 4
	ret
	.cfi_endproc
.LFE9:
	.size	spawnThread, .-spawnThread
.Letext0:
	.file 2 "task.h"